target datalayout = "e-m:e-p270:32:32-p271:32:32-p272:64:64-i64:64-i128:128-f80:128-n8:16:32:64-S128"
target triple = "x86_64-pc-linux-gnu"

%struct._priv_exr_context_t = type { i8, i8, i8, i8, i8, i8, i8, i8, %struct.exr_attr_string_t, %struct.exr_attr_string_t, ptr, ptr, ptr, ptr, ptr, ptr, ptr, ptr, i32, i32, i32, i32, i32, float, ptr, ptr, ptr, i64, ptr, ptr, i64, i32, i32, i32, i32, %struct._priv_exr_part_t, ptr, ptr, %struct.exr_attribute_list, %union.pthread_mutex_t, i8, i8, [2 x i8], i32 }
%struct.exr_attr_string_t = type { i32, i32, ptr }
%struct._priv_exr_part_t = type { i32, i32, %struct.exr_attribute_list, ptr, ptr, ptr, ptr, ptr, ptr, ptr, ptr, ptr, ptr, ptr, ptr, ptr, ptr, %struct.exr_attr_box2i_t, %struct.exr_attr_box2i_t, i32, i32, i32, float, i32, i32, ptr, ptr, ptr, ptr, i64, i16, i16, i32, i64, i64 }
%struct.exr_attr_box2i_t = type { %struct.exr_attr_v2i_t, %struct.exr_attr_v2i_t }
%struct.exr_attr_v2i_t = type { i32, i32 }
%struct.exr_attribute_list = type { i32, i32, ptr, ptr }
%union.pthread_mutex_t = type { %struct.__pthread_mutex_s }
%struct.__pthread_mutex_s = type { i32, i32, i32, i32, i32, i16, i16, %struct.__pthread_internal_list }
%struct.__pthread_internal_list = type { ptr, ptr }

@.str = private unnamed_addr constant [29 x i8] c"Part index (%d) out of range\00", align 1
@.str.13 = private unnamed_addr constant [29 x i8] c"Tile data missing or corrupt\00", align 1

; Function Attrs: inlinehint nounwind uwtable
define internal void @internal_exr_unlock(ptr noundef %0) #2 {
  %2 = alloca ptr, align 8
  %3 = alloca ptr, align 8
  store ptr %0, ptr %2, align 8, !tbaa !3
  call void @llvm.lifetime.start.p0(i64 8, ptr %3) #6
  %4 = load ptr, ptr %2, align 8, !tbaa !3
  %5 = ptrtoint ptr %4 to i64
  %6 = inttoptr i64 %5 to ptr
  store ptr %6, ptr %3, align 8, !tbaa !3
  %7 = load ptr, ptr %3, align 8, !tbaa !3
  %8 = getelementptr inbounds nuw %struct._priv_exr_context_t, ptr %7, i32 0, i32 39
  %9 = call i32 @pthread_mutex_unlock(ptr noundef %8) #6
  call void @llvm.lifetime.end.p0(i64 8, ptr %3) #6
  ret void
}

; Function Attrs: inlinehint nounwind uwtable
define internal void @internal_exr_lock(ptr noundef %0) #2 {
  %2 = alloca ptr, align 8
  %3 = alloca ptr, align 8
  store ptr %0, ptr %2, align 8, !tbaa !3
  call void @llvm.lifetime.start.p0(i64 8, ptr %3) #6
  %4 = load ptr, ptr %2, align 8, !tbaa !3
  %5 = ptrtoint ptr %4 to i64
  %6 = inttoptr i64 %5 to ptr
  store ptr %6, ptr %3, align 8, !tbaa !3
  %7 = load ptr, ptr %3, align 8, !tbaa !3
  %8 = getelementptr inbounds nuw %struct._priv_exr_context_t, ptr %7, i32 0, i32 39
  %9 = call i32 @pthread_mutex_lock(ptr noundef %8) #6
  call void @llvm.lifetime.end.p0(i64 8, ptr %3) #6
  ret void
}

; Function Attrs: nounwind uwtable
define i32 @exr_get_tile_counts(ptr noundef %0, i32 noundef %1, i32 noundef %2, i32 noundef %3, ptr noundef %4, ptr noundef %5) #0 {
  %7 = alloca i32, align 4
  %8 = alloca ptr, align 8
  %9 = alloca i32, align 4
  %10 = alloca i32, align 4
  %11 = alloca i32, align 4
  %12 = alloca ptr, align 8
  %13 = alloca ptr, align 8
  %14 = alloca ptr, align 8
  %15 = alloca i32, align 4
  store ptr %0, ptr %8, align 8, !tbaa !3
  store i32 %1, ptr %9, align 4, !tbaa !27
  store i32 %2, ptr %10, align 4, !tbaa !27
  store i32 %3, ptr %11, align 4, !tbaa !27
  store ptr %4, ptr %12, align 8, !tbaa !8
  store ptr %5, ptr %13, align 8, !tbaa !8
  call void @llvm.lifetime.start.p0(i64 8, ptr %14) #6
  %16 = load ptr, ptr %8, align 8, !tbaa !3
  %17 = icmp ne ptr %16, null
  br i1 %17, label %19, label %18

18:                                               ; preds = %6
  store i32 2, ptr %7, align 4
  store i32 1, ptr %15, align 4
  br label %190

19:                                               ; preds = %6
  %20 = load ptr, ptr %8, align 8, !tbaa !3
  %21 = getelementptr inbounds nuw %struct._priv_exr_context_t, ptr %20, i32 0, i32 0
  %22 = load i8, ptr %21, align 8, !tbaa !25
  %23 = zext i8 %22 to i32
  %24 = icmp eq i32 %23, 1
  br i1 %24, label %25, label %27

25:                                               ; preds = %19
  %26 = load ptr, ptr %8, align 8, !tbaa !3
  call void @internal_exr_lock(ptr noundef %26)
  br label %27

27:                                               ; preds = %25, %19
  %28 = load i32, ptr %9, align 4, !tbaa !27
  %29 = icmp slt i32 %28, 0
  br i1 %29, label %36, label %30

30:                                               ; preds = %27
  %31 = load i32, ptr %9, align 4, !tbaa !27
  %32 = load ptr, ptr %8, align 8, !tbaa !3
  %33 = getelementptr inbounds nuw %struct._priv_exr_context_t, ptr %32, i32 0, i32 34
  %34 = load i32, ptr %33, align 4, !tbaa !26
  %35 = icmp sge i32 %31, %34
  br i1 %35, label %36, label %51

36:                                               ; preds = %30, %27
  %37 = load ptr, ptr %8, align 8, !tbaa !3
  %38 = getelementptr inbounds nuw %struct._priv_exr_context_t, ptr %37, i32 0, i32 0
  %39 = load i8, ptr %38, align 8, !tbaa !25
  %40 = zext i8 %39 to i32
  %41 = icmp eq i32 %40, 1
  br i1 %41, label %42, label %44

42:                                               ; preds = %36
  %43 = load ptr, ptr %8, align 8, !tbaa !3
  call void @internal_exr_unlock(ptr noundef %43)
  br label %44

44:                                               ; preds = %42, %36
  %45 = load ptr, ptr %8, align 8, !tbaa !3
  %46 = getelementptr inbounds nuw %struct._priv_exr_context_t, ptr %45, i32 0, i32 14
  %47 = load ptr, ptr %46, align 8, !tbaa !29
  %48 = load ptr, ptr %8, align 8, !tbaa !3
  %49 = load i32, ptr %9, align 4, !tbaa !27
  %50 = call i32 (ptr, i32, ptr, ...) %47(ptr noundef %48, i32 noundef 4, ptr noundef @.str, i32 noundef %49)
  store i32 %50, ptr %7, align 4
  store i32 1, ptr %15, align 4
  br label %190

51:                                               ; preds = %30
  %52 = load ptr, ptr %8, align 8, !tbaa !3
  %53 = getelementptr inbounds nuw %struct._priv_exr_context_t, ptr %52, i32 0, i32 37
  %54 = load ptr, ptr %53, align 8, !tbaa !30
  %55 = load i32, ptr %9, align 4, !tbaa !27
  %56 = sext i32 %55 to i64
  %57 = getelementptr inbounds ptr, ptr %54, i64 %56
  %58 = load ptr, ptr %57, align 8, !tbaa !31
  store ptr %58, ptr %14, align 8, !tbaa !31
  %59 = load ptr, ptr %14, align 8, !tbaa !31
  %60 = getelementptr inbounds nuw %struct._priv_exr_part_t, ptr %59, i32 0, i32 1
  %61 = load i32, ptr %60, align 4, !tbaa !32
  %62 = icmp eq i32 %61, 1
  br i1 %62, label %68, label %63

63:                                               ; preds = %51
  %64 = load ptr, ptr %14, align 8, !tbaa !31
  %65 = getelementptr inbounds nuw %struct._priv_exr_part_t, ptr %64, i32 0, i32 1
  %66 = load i32, ptr %65, align 4, !tbaa !32
  %67 = icmp eq i32 %66, 3
  br i1 %67, label %68, label %175

68:                                               ; preds = %63, %51
  %69 = load ptr, ptr %14, align 8, !tbaa !31
  %70 = getelementptr inbounds nuw %struct._priv_exr_part_t, ptr %69, i32 0, i32 11
  %71 = load ptr, ptr %70, align 8, !tbaa !45
  %72 = icmp ne ptr %71, null
  br i1 %72, label %73, label %93

73:                                               ; preds = %68
  %74 = load ptr, ptr %14, align 8, !tbaa !31
  %75 = getelementptr inbounds nuw %struct._priv_exr_part_t, ptr %74, i32 0, i32 23
  %76 = load i32, ptr %75, align 8, !tbaa !46
  %77 = icmp sle i32 %76, 0
  br i1 %77, label %93, label %78

78:                                               ; preds = %73
  %79 = load ptr, ptr %14, align 8, !tbaa !31
  %80 = getelementptr inbounds nuw %struct._priv_exr_part_t, ptr %79, i32 0, i32 24
  %81 = load i32, ptr %80, align 4, !tbaa !47
  %82 = icmp sle i32 %81, 0
  br i1 %82, label %93, label %83

83:                                               ; preds = %78
  %84 = load ptr, ptr %14, align 8, !tbaa !31
  %85 = getelementptr inbounds nuw %struct._priv_exr_part_t, ptr %84, i32 0, i32 25
  %86 = load ptr, ptr %85, align 8, !tbaa !48
  %87 = icmp ne ptr %86, null
  br i1 %87, label %88, label %93

88:                                               ; preds = %83
  %89 = load ptr, ptr %14, align 8, !tbaa !31
  %90 = getelementptr inbounds nuw %struct._priv_exr_part_t, ptr %89, i32 0, i32 26
  %91 = load ptr, ptr %90, align 8, !tbaa !49
  %92 = icmp ne ptr %91, null
  br i1 %92, label %108, label %93

93:                                               ; preds = %88, %83, %78, %73, %68
  %94 = load ptr, ptr %8, align 8, !tbaa !3
  %95 = getelementptr inbounds nuw %struct._priv_exr_context_t, ptr %94, i32 0, i32 0
  %96 = load i8, ptr %95, align 8, !tbaa !25
  %97 = zext i8 %96 to i32
  %98 = icmp eq i32 %97, 1
  br i1 %98, label %99, label %101

99:                                               ; preds = %93
  %100 = load ptr, ptr %8, align 8, !tbaa !3
  call void @internal_exr_unlock(ptr noundef %100)
  br label %102

101:                                              ; preds = %93
  br label %102

102:                                              ; preds = %101, %99
  %103 = load ptr, ptr %8, align 8, !tbaa !3
  %104 = getelementptr inbounds nuw %struct._priv_exr_context_t, ptr %103, i32 0, i32 14
  %105 = load ptr, ptr %104, align 8, !tbaa !29
  %106 = load ptr, ptr %8, align 8, !tbaa !3
  %107 = call i32 (ptr, i32, ptr, ...) %105(ptr noundef %106, i32 noundef 13, ptr noundef @.str.13)
  store i32 %107, ptr %7, align 4
  store i32 1, ptr %15, align 4
  br label %190

108:                                              ; preds = %88
  %109 = load i32, ptr %10, align 4, !tbaa !27
  %110 = icmp slt i32 %109, 0
  br i1 %110, label %126, label %111

111:                                              ; preds = %108
  %112 = load i32, ptr %11, align 4, !tbaa !27
  %113 = icmp slt i32 %112, 0
  br i1 %113, label %126, label %114

114:                                              ; preds = %111
  %115 = load i32, ptr %10, align 4, !tbaa !27
  %116 = load ptr, ptr %14, align 8, !tbaa !31
  %117 = getelementptr inbounds nuw %struct._priv_exr_part_t, ptr %116, i32 0, i32 23
  %118 = load i32, ptr %117, align 8, !tbaa !46
  %119 = icmp sge i32 %115, %118
  br i1 %119, label %126, label %120

120:                                              ; preds = %114
  %121 = load i32, ptr %11, align 4, !tbaa !27
  %122 = load ptr, ptr %14, align 8, !tbaa !31
  %123 = getelementptr inbounds nuw %struct._priv_exr_part_t, ptr %122, i32 0, i32 24
  %124 = load i32, ptr %123, align 4, !tbaa !47
  %125 = icmp sge i32 %121, %124
  br i1 %125, label %126, label %141

126:                                              ; preds = %120, %114, %111, %108
  %127 = load ptr, ptr %8, align 8, !tbaa !3
  %128 = getelementptr inbounds nuw %struct._priv_exr_context_t, ptr %127, i32 0, i32 0
  %129 = load i8, ptr %128, align 8, !tbaa !25
  %130 = zext i8 %129 to i32
  %131 = icmp eq i32 %130, 1
  br i1 %131, label %132, label %134

132:                                              ; preds = %126
  %133 = load ptr, ptr %8, align 8, !tbaa !3
  call void @internal_exr_unlock(ptr noundef %133)
  br label %135

134:                                              ; preds = %126
  br label %135

135:                                              ; preds = %134, %132
  %136 = load ptr, ptr %8, align 8, !tbaa !3
  %137 = getelementptr inbounds nuw %struct._priv_exr_context_t, ptr %136, i32 0, i32 12
  %138 = load ptr, ptr %137, align 8, !tbaa !10
  %139 = load ptr, ptr %8, align 8, !tbaa !3
  %140 = call i32 %138(ptr noundef %139, i32 noundef 4)
  store i32 %140, ptr %7, align 4
  store i32 1, ptr %15, align 4
  br label %190

141:                                              ; preds = %120
  %142 = load ptr, ptr %12, align 8, !tbaa !8
  %143 = icmp ne ptr %142, null
  br i1 %143, label %144, label %153

144:                                              ; preds = %141
  %145 = load ptr, ptr %14, align 8, !tbaa !31
  %146 = getelementptr inbounds nuw %struct._priv_exr_part_t, ptr %145, i32 0, i32 25
  %147 = load ptr, ptr %146, align 8, !tbaa !48
  %148 = load i32, ptr %10, align 4, !tbaa !27
  %149 = sext i32 %148 to i64
  %150 = getelementptr inbounds i32, ptr %147, i64 %149
  %151 = load i32, ptr %150, align 4, !tbaa !27
  %152 = load ptr, ptr %12, align 8, !tbaa !8
  store i32 %151, ptr %152, align 4, !tbaa !27
  br label %153

153:                                              ; preds = %144, %141
  %154 = load ptr, ptr %13, align 8, !tbaa !8
  %155 = icmp ne ptr %154, null
  br i1 %155, label %156, label %165

156:                                              ; preds = %153
  %157 = load ptr, ptr %14, align 8, !tbaa !31
  %158 = getelementptr inbounds nuw %struct._priv_exr_part_t, ptr %157, i32 0, i32 26
  %159 = load ptr, ptr %158, align 8, !tbaa !49
  %160 = load i32, ptr %11, align 4, !tbaa !27
  %161 = sext i32 %160 to i64
  %162 = getelementptr inbounds i32, ptr %159, i64 %161
  %163 = load i32, ptr %162, align 4, !tbaa !27
  %164 = load ptr, ptr %13, align 8, !tbaa !8
  store i32 %163, ptr %164, align 4, !tbaa !27
  br label %165

165:                                              ; preds = %156, %153
  %166 = load ptr, ptr %8, align 8, !tbaa !3
  %167 = getelementptr inbounds nuw %struct._priv_exr_context_t, ptr %166, i32 0, i32 0
  %168 = load i8, ptr %167, align 8, !tbaa !25
  %169 = zext i8 %168 to i32
  %170 = icmp eq i32 %169, 1
  br i1 %170, label %171, label %173

171:                                              ; preds = %165
  %172 = load ptr, ptr %8, align 8, !tbaa !3
  call void @internal_exr_unlock(ptr noundef %172)
  br label %174

173:                                              ; preds = %165
  br label %174

174:                                              ; preds = %173, %171
  store i32 0, ptr %7, align 4
  store i32 1, ptr %15, align 4
  br label %190

175:                                              ; preds = %63
  %176 = load ptr, ptr %8, align 8, !tbaa !3
  %177 = getelementptr inbounds nuw %struct._priv_exr_context_t, ptr %176, i32 0, i32 0
  %178 = load i8, ptr %177, align 8, !tbaa !25
  %179 = zext i8 %178 to i32
  %180 = icmp eq i32 %179, 1
  br i1 %180, label %181, label %183

181:                                              ; preds = %175
  %182 = load ptr, ptr %8, align 8, !tbaa !3
  call void @internal_exr_unlock(ptr noundef %182)
  br label %184

183:                                              ; preds = %175
  br label %184

184:                                              ; preds = %183, %181
  %185 = load ptr, ptr %8, align 8, !tbaa !3
  %186 = getelementptr inbounds nuw %struct._priv_exr_context_t, ptr %185, i32 0, i32 12
  %187 = load ptr, ptr %186, align 8, !tbaa !10
  %188 = load ptr, ptr %8, align 8, !tbaa !3
  %189 = call i32 %187(ptr noundef %188, i32 noundef 19)
  store i32 %189, ptr %7, align 4
  store i32 1, ptr %15, align 4
  br label %190

190:                                              ; preds = %184, %174, %135, %102, %44, %18
  call void @llvm.lifetime.end.p0(i64 8, ptr %14) #6
  %191 = load i32, ptr %7, align 4
  ret i32 %191
}