; Function Attrs: nounwind uwtable
define i32 @exr_get_tile_counts(ptr noundef %0, i32 noundef %1, i32 noundef %2, i32 noundef %3, ptr noundef writeonly %4, ptr noundef writeonly %5) local_unnamed_addr #0 {
  %.not = icmp eq ptr %0, null
  br i1 %.not, label %101, label %7

7:                                                ; preds = %6
  %8 = load i8, ptr %0, align 8, !tbaa !22
  %9 = icmp eq i8 %8, 1
  br i1 %9, label %10, label %13

10:                                               ; preds = %7
  %11 = getelementptr inbounds nuw i8, ptr %0, i64 504
  %12 = tail call i32 @pthread_mutex_lock(ptr noundef nonnull %11) #6
  br label %13

13:                                               ; preds = %10, %7
  %14 = icmp slt i32 %1, 0
  br i1 %14, label %18, label %15

15:                                               ; preds = %13
  %16 = getelementptr inbounds nuw i8, ptr %0, i64 196
  %17 = load i32, ptr %16, align 4, !tbaa !23
  %.not59 = icmp slt i32 %1, %17
  br i1 %.not59, label %28, label %18

18:                                               ; preds = %15, %13
  %19 = load i8, ptr %0, align 8, !tbaa !22
  %20 = icmp eq i8 %19, 1
  br i1 %20, label %21, label %24

21:                                               ; preds = %18
  %22 = getelementptr inbounds nuw i8, ptr %0, i64 504
  %23 = tail call i32 @pthread_mutex_unlock(ptr noundef nonnull %22) #6
  br label %24

24:                                               ; preds = %21, %18
  %25 = getelementptr inbounds nuw i8, ptr %0, i64 72
  %26 = load ptr, ptr %25, align 8, !tbaa !25
  %27 = tail call i32 (ptr, i32, ptr, ...) %26(ptr noundef nonnull %0, i32 noundef 4, ptr noundef nonnull @.str, i32 noundef %1) #6
  br label %101

28:                                               ; preds = %15
  %29 = getelementptr inbounds nuw i8, ptr %0, i64 472
  %30 = load ptr, ptr %29, align 8, !tbaa !26
  %31 = zext nneg i32 %1 to i64
  %32 = getelementptr inbounds nuw ptr, ptr %30, i64 %31
  %33 = load ptr, ptr %32, align 8, !tbaa !27
  %34 = getelementptr inbounds nuw i8, ptr %33, i64 4
  %35 = load i32, ptr %34, align 4, !tbaa !28
  switch i32 %35, label %91 [
    i32 1, label %36
    i32 3, label %36
  ]

36:                                               ; preds = %28, %28
  %37 = getelementptr inbounds nuw i8, ptr %33, i64 96
  %38 = load ptr, ptr %37, align 8, !tbaa !39
  %.not60 = icmp eq ptr %38, null
  br i1 %.not60, label %53, label %39

39:                                               ; preds = %36
  %40 = getelementptr inbounds nuw i8, ptr %33, i64 192
  %41 = load i32, ptr %40, align 8, !tbaa !40
  %42 = icmp slt i32 %41, 1
  br i1 %42, label %53, label %43

43:                                               ; preds = %39
  %44 = getelementptr inbounds nuw i8, ptr %33, i64 196
  %45 = load i32, ptr %44, align 4, !tbaa !41
  %46 = icmp slt i32 %45, 1
  br i1 %46, label %53, label %47

47:                                               ; preds = %43
  %48 = getelementptr inbounds nuw i8, ptr %33, i64 200
  %49 = load ptr, ptr %48, align 8, !tbaa !42
  %.not61 = icmp eq ptr %49, null
  br i1 %.not61, label %53, label %50

50:                                               ; preds = %47
  %51 = getelementptr inbounds nuw i8, ptr %33, i64 208
  %52 = load ptr, ptr %51, align 8, !tbaa !43
  %.not62 = icmp eq ptr %52, null
  br i1 %.not62, label %53, label %63

53:                                               ; preds = %50, %47, %43, %39, %36
  %54 = load i8, ptr %0, align 8, !tbaa !22
  %55 = icmp eq i8 %54, 1
  br i1 %55, label %56, label %59

56:                                               ; preds = %53
  %57 = getelementptr inbounds nuw i8, ptr %0, i64 504
  %58 = tail call i32 @pthread_mutex_unlock(ptr noundef nonnull %57) #6
  br label %59

59:                                               ; preds = %53, %56
  %60 = getelementptr inbounds nuw i8, ptr %0, i64 72
  %61 = load ptr, ptr %60, align 8, !tbaa !25
  %62 = tail call i32 (ptr, i32, ptr, ...) %61(ptr noundef nonnull %0, i32 noundef 13, ptr noundef nonnull @.str.13) #6
  br label %101

63:                                               ; preds = %50
  %64 = or i32 %3, %2
  %or.cond.not = icmp sgt i32 %64, -1
  %.not63 = icmp slt i32 %2, %41
  %or.cond = and i1 %or.cond.not, %.not63
  %.not64 = icmp slt i32 %3, %45
  %or.cond67 = and i1 %or.cond, %.not64
  br i1 %or.cond67, label %75, label %65

65:                                               ; preds = %63
  %66 = load i8, ptr %0, align 8, !tbaa !22
  %67 = icmp eq i8 %66, 1
  br i1 %67, label %68, label %71

68:                                               ; preds = %65
  %69 = getelementptr inbounds nuw i8, ptr %0, i64 504
  %70 = tail call i32 @pthread_mutex_unlock(ptr noundef nonnull %69) #6
  br label %71

71:                                               ; preds = %65, %68
  %72 = getelementptr inbounds nuw i8, ptr %0, i64 56
  %73 = load ptr, ptr %72, align 8, !tbaa !3
  %74 = tail call i32 %73(ptr noundef nonnull %0, i32 noundef 4) #6
  br label %101

75:                                               ; preds = %63
  %.not65 = icmp eq ptr %4, null
  br i1 %.not65, label %80, label %76

76:                                               ; preds = %75
  %77 = zext nneg i32 %2 to i64
  %78 = getelementptr inbounds nuw i32, ptr %49, i64 %77
  %79 = load i32, ptr %78, align 4, !tbaa !24
  store i32 %79, ptr %4, align 4, !tbaa !24
  br label %80

80:                                               ; preds = %76, %75
  %.not66 = icmp eq ptr %5, null
  br i1 %.not66, label %85, label %81

81:                                               ; preds = %80
  %82 = zext nneg i32 %3 to i64
  %83 = getelementptr inbounds nuw i32, ptr %52, i64 %82
  %84 = load i32, ptr %83, align 4, !tbaa !24
  store i32 %84, ptr %5, align 4, !tbaa !24
  br label %85

85:                                               ; preds = %81, %80
  %86 = load i8, ptr %0, align 8, !tbaa !22
  %87 = icmp eq i8 %86, 1
  br i1 %87, label %88, label %101

88:                                               ; preds = %85
  %89 = getelementptr inbounds nuw i8, ptr %0, i64 504
  %90 = tail call i32 @pthread_mutex_unlock(ptr noundef nonnull %89) #6
  br label %101

91:                                               ; preds = %28
  %92 = load i8, ptr %0, align 8, !tbaa !22
  %93 = icmp eq i8 %92, 1
  br i1 %93, label %94, label %97

94:                                               ; preds = %91
  %95 = getelementptr inbounds nuw i8, ptr %0, i64 504
  %96 = tail call i32 @pthread_mutex_unlock(ptr noundef nonnull %95) #6
  br label %97

97:                                               ; preds = %91, %94
  %98 = getelementptr inbounds nuw i8, ptr %0, i64 56
  %99 = load ptr, ptr %98, align 8, !tbaa !3
  %100 = tail call i32 %99(ptr noundef nonnull %0, i32 noundef 19) #6
  br label %101

101:                                              ; preds = %88, %85, %6, %97, %71, %59, %24
  %.0 = phi i32 [ %27, %24 ], [ %62, %59 ], [ %74, %71 ], [ %100, %97 ], [ 2, %6 ], [ 0, %85 ], [ 0, %88 ]
  ret i32 %.0
}